; Function Attrs: mustprogress uwtable
define void @_ZN32pxrInternal_v0_24__pxrReserved__19HgiResourceBindingsC2ERKNS_23HgiResourceBindingsDescE(ptr noundef nonnull align 8 dereferenceable(88) initializes((0, 8)) %0, ptr noundef nonnull align 8 dereferenceable(80) %1) unnamed_addr #0 align 2 personality ptr @__gxx_personality_v0 {
  store ptr getelementptr inbounds nuw inrange(-16, 16) (i8, ptr @_ZTVN32pxrInternal_v0_24__pxrReserved__19HgiResourceBindingsE, i64 16), ptr %0, align 8
  %3 = getelementptr inbounds nuw i8, ptr %0, i64 8
  tail call void @_ZNSt7__cxx1112basic_stringIcSt11char_traitsIcESaIcEEC1ERKS4_(ptr noundef nonnull align 8 dereferenceable(80) %3, ptr noundef nonnull align 8 dereferenceable(80) %1)
  %4 = getelementptr inbounds nuw i8, ptr %0, i64 40
  %5 = getelementptr inbounds nuw i8, ptr %1, i64 32
  invoke void @_ZNSt6vectorIN32pxrInternal_v0_24__pxrReserved__17HgiBufferBindDescESaIS1_EEC2ERKS3_(ptr noundef nonnull align 8 dereferenceable(24) %4, ptr noundef nonnull align 8 dereferenceable(24) %5)
          to label %6 unwind label %9

6:                                                ; preds = %2
  %7 = getelementptr inbounds nuw i8, ptr %0, i64 64
  %8 = getelementptr inbounds nuw i8, ptr %1, i64 56
  invoke void @_ZNSt6vectorIN32pxrInternal_v0_24__pxrReserved__18HgiTextureBindDescESaIS1_EEC2ERKS3_(ptr noundef nonnull align 8 dereferenceable(24) %7, ptr noundef nonnull align 8 dereferenceable(24) %8)
          to label %_ZN32pxrInternal_v0_24__pxrReserved__23HgiResourceBindingsDescC2ERKS0_.exit unwind label %11

9:                                                ; preds = %2
  %10 = landingpad { ptr, i32 }
          cleanup
  br label %13

11:                                               ; preds = %6
  %12 = landingpad { ptr, i32 }
          cleanup
  tail call void @_ZNSt6vectorIN32pxrInternal_v0_24__pxrReserved__17HgiBufferBindDescESaIS1_EED2Ev(ptr noundef nonnull align 8 dereferenceable(24) %4) #16
  br label %13

13:                                               ; preds = %11, %9
  %.pn.i = phi { ptr, i32 } [ %12, %11 ], [ %10, %9 ]
  tail call void @_ZNSt7__cxx1112basic_stringIcSt11char_traitsIcESaIcEED1Ev(ptr noundef nonnull align 8 dereferenceable(80) %3) #16
  resume { ptr, i32 } %.pn.i

_ZN32pxrInternal_v0_24__pxrReserved__23HgiResourceBindingsDescC2ERKS0_.exit: ; preds = %6
  ret void
}